; Function Attrs: nounwind uwtable
define ptr @l_Array_foldlMUnsafe_fold___at_Lean_Meta_DiscrTree_Trie_size___spec__1___rarg(ptr noundef readonly captures(none) %0, i64 noundef %1, i64 noundef %2, ptr noundef %3) local_unnamed_addr #2 {
  %.not49 = icmp eq i64 %1, %2
  br i1 %.not49, label %._crit_edge, label %.lr.ph

.lr.ph:                                           ; preds = %4
  %5 = getelementptr inbounds nuw i8, ptr %0, i64 24
  br label %6

6:                                                ; preds = %.lr.ph, %lean_dec.exit
  %.02151 = phi i64 [ %1, %.lr.ph ], [ %17, %lean_dec.exit ]
  %.02350 = phi ptr [ %3, %.lr.ph ], [ %.0.i5761, %lean_dec.exit ]
  %7 = getelementptr inbounds nuw [0 x ptr], ptr %5, i64 0, i64 %.02151
  %8 = load ptr, ptr %7, align 8, !tbaa !9
  %9 = ptrtoint ptr %8 to i64
  %10 = and i64 %9, 1
  %.not.i34 = icmp eq i64 %10, 0
  br i1 %.not.i34, label %11, label %lean_array_uget.exit

11:                                               ; preds = %6
  %.val.i.i = load i32, ptr %8, align 4, !tbaa !4
  %12 = icmp sgt i32 %.val.i.i, 0
  br i1 %12, label %13, label %15, !prof !11

13:                                               ; preds = %11
  %14 = add nuw i32 %.val.i.i, 1
  store i32 %14, ptr %8, align 4, !tbaa !4
  br label %lean_array_uget.exit

15:                                               ; preds = %11
  %.not.i.i = icmp eq i32 %.val.i.i, 0
  br i1 %.not.i.i, label %lean_array_uget.exit, label %16

16:                                               ; preds = %15
  tail call void @lean_inc_ref_cold(ptr noundef nonnull %8) #7
  br label %lean_array_uget.exit

lean_array_uget.exit:                             ; preds = %6, %13, %15, %16
  %17 = add i64 %.02151, 1
  %18 = getelementptr inbounds nuw i8, ptr %8, i64 16
  %19 = load ptr, ptr %18, align 8, !tbaa !9
  %20 = ptrtoint ptr %19 to i64
  %21 = and i64 %20, 1
  %.not44 = icmp eq i64 %21, 0
  br i1 %.not44, label %22, label %lean_inc.exit

22:                                               ; preds = %lean_array_uget.exit
  %.val.i = load i32, ptr %19, align 4, !tbaa !4
  %23 = icmp sgt i32 %.val.i, 0
  br i1 %23, label %24, label %26, !prof !11

24:                                               ; preds = %22
  %25 = add nuw i32 %.val.i, 1
  store i32 %25, ptr %19, align 4, !tbaa !4
  br label %lean_inc.exit

26:                                               ; preds = %22
  %.not.i35 = icmp eq i32 %.val.i, 0
  br i1 %.not.i35, label %lean_inc.exit, label %27

27:                                               ; preds = %26
  tail call void @lean_inc_ref_cold(ptr noundef nonnull %19) #7
  br label %lean_inc.exit

lean_inc.exit:                                    ; preds = %27, %26, %24, %lean_array_uget.exit
  br i1 %.not.i34, label %28, label %lean_dec.exit27

28:                                               ; preds = %lean_inc.exit
  %29 = load i32, ptr %8, align 4, !tbaa !4
  %30 = icmp sgt i32 %29, 1
  br i1 %30, label %31, label %33, !prof !11

31:                                               ; preds = %28
  %32 = add nsw i32 %29, -1
  store i32 %32, ptr %8, align 4, !tbaa !4
  br label %lean_dec.exit27

33:                                               ; preds = %28
  %.not.i = icmp eq i32 %29, 0
  br i1 %.not.i, label %lean_dec.exit27, label %34

34:                                               ; preds = %33
  tail call void @lean_dec_ref_cold(ptr noundef nonnull %8) #7
  br label %lean_dec.exit27

lean_dec.exit27:                                  ; preds = %34, %33, %31, %lean_inc.exit
  %35 = tail call ptr @l_Lean_Meta_DiscrTree_Trie_size___rarg(ptr noundef %19)
  br i1 %.not44, label %36, label %lean_dec.exit26

36:                                               ; preds = %lean_dec.exit27
  %37 = load i32, ptr %19, align 4, !tbaa !4
  %38 = icmp sgt i32 %37, 1
  br i1 %38, label %39, label %41, !prof !11

39:                                               ; preds = %36
  %40 = add nsw i32 %37, -1
  store i32 %40, ptr %19, align 4, !tbaa !4
  br label %lean_dec.exit26

41:                                               ; preds = %36
  %.not.i28 = icmp eq i32 %37, 0
  br i1 %.not.i28, label %lean_dec.exit26, label %42

42:                                               ; preds = %41
  tail call void @lean_dec_ref_cold(ptr noundef nonnull %19) #7
  br label %lean_dec.exit26

lean_dec.exit26:                                  ; preds = %42, %41, %39, %lean_dec.exit27
  %43 = ptrtoint ptr %.02350 to i64
  %44 = and i64 %43, 1
  %.not46 = icmp eq i64 %44, 0
  %.pre54 = ptrtoint ptr %35 to i64
  %.pre = and i64 %.pre54, 1
  %45 = icmp eq i64 %.pre, 0
  br i1 %.not46, label %lean_nat_add.exit, label %46, !prof !13

46:                                               ; preds = %lean_dec.exit26
  br i1 %45, label %lean_nat_add.exit.thread58, label %48, !prof !13

lean_nat_add.exit.thread58:                       ; preds = %46
  %47 = tail call ptr @lean_nat_big_add(ptr noundef %.02350, ptr noundef %35) #7
  br label %60

48:                                               ; preds = %46
  %49 = lshr i64 %43, 1
  %50 = lshr i64 %.pre54, 1
  %51 = add nuw i64 %50, %49
  %52 = icmp sgt i64 %51, -1
  br i1 %52, label %53, label %57, !prof !11

53:                                               ; preds = %48
  %54 = shl nuw i64 %51, 1
  %55 = or disjoint i64 %54, 1
  %56 = inttoptr i64 %55 to ptr
  br label %lean_dec.exit

57:                                               ; preds = %48
  %58 = tail call ptr @lean_big_usize_to_nat(i64 noundef %51) #7
  br label %lean_dec.exit

lean_nat_add.exit:                                ; preds = %lean_dec.exit26
  %59 = tail call ptr @lean_nat_big_add(ptr noundef %.02350, ptr noundef %35) #7
  br i1 %45, label %60, label %lean_dec.exit25.thread

60:                                               ; preds = %lean_nat_add.exit.thread58, %lean_nat_add.exit
  %61 = phi ptr [ %47, %lean_nat_add.exit.thread58 ], [ %59, %lean_nat_add.exit ]
  %62 = load i32, ptr %35, align 4, !tbaa !4
  %63 = icmp sgt i32 %62, 1
  br i1 %63, label %64, label %66, !prof !11

64:                                               ; preds = %60
  %65 = add nsw i32 %62, -1
  store i32 %65, ptr %35, align 4, !tbaa !4
  br label %lean_dec.exit25

66:                                               ; preds = %60
  %.not.i30 = icmp eq i32 %62, 0
  br i1 %.not.i30, label %lean_dec.exit25, label %67

67:                                               ; preds = %66
  tail call void @lean_dec_ref_cold(ptr noundef nonnull %35) #7
  br label %lean_dec.exit25

lean_dec.exit25:                                  ; preds = %67, %66, %64
  br i1 %.not46, label %lean_dec.exit25.thread, label %lean_dec.exit

lean_dec.exit25.thread:                           ; preds = %lean_nat_add.exit, %lean_dec.exit25
  %.0.i5762 = phi ptr [ %61, %lean_dec.exit25 ], [ %59, %lean_nat_add.exit ]
  %68 = load i32, ptr %.02350, align 4, !tbaa !4
  %69 = icmp sgt i32 %68, 1
  br i1 %69, label %70, label %72, !prof !11

70:                                               ; preds = %lean_dec.exit25.thread
  %71 = add nsw i32 %68, -1
  store i32 %71, ptr %.02350, align 4, !tbaa !4
  br label %lean_dec.exit

72:                                               ; preds = %lean_dec.exit25.thread
  %.not.i32 = icmp eq i32 %68, 0
  br i1 %.not.i32, label %lean_dec.exit, label %73

73:                                               ; preds = %72
  tail call void @lean_dec_ref_cold(ptr noundef nonnull %.02350) #7
  br label %lean_dec.exit

lean_dec.exit:                                    ; preds = %57, %53, %lean_dec.exit25, %70, %72, %73
  %.0.i5761 = phi ptr [ %61, %lean_dec.exit25 ], [ %.0.i5762, %70 ], [ %.0.i5762, %72 ], [ %.0.i5762, %73 ], [ %56, %53 ], [ %58, %57 ]
  %.not = icmp eq i64 %17, %2
  br i1 %.not, label %._crit_edge, label %6

._crit_edge:                                      ; preds = %lean_dec.exit, %4
  %.023.lcssa = phi ptr [ %3, %4 ], [ %.0.i5761, %lean_dec.exit ]
  ret ptr %.023.lcssa
}